target datalayout = "e-m:e-p270:32:32-p271:32:32-p272:64:64-i64:64-i128:128-f80:128-n8:16:32:64-S128"
target triple = "x86_64-pc-linux-gnu"

%struct.anon.3 = type { i32, i32, i32, i32 }

@.str.5 = private unnamed_addr constant [33 x i8] c"../openssl/test/safe_math_test.c\00", align 1
@.str.6 = private unnamed_addr constant [4 x i8] c"err\00", align 1
@.str.8 = private unnamed_addr constant [2 x i8] c"r\00", align 1
@.str.50 = private unnamed_addr constant [5 x i8] c"real\00", align 1
@.str.52 = private unnamed_addr constant [25 x i8] c"test_muldiv_uints[n].err\00", align 1
@.str.53 = private unnamed_addr constant [31 x i8] c"%u * %u / %u  r = %u  err = %d\00", align 1

; Function Attrs: inlinehint nounwind uwtable
define internal i32 @safe_add_uint(i32 noundef %0, i32 noundef %1, ptr noundef %2) #3 {
  %4 = alloca i32, align 4
  %5 = alloca i32, align 4
  %6 = alloca i32, align 4
  %7 = alloca ptr, align 8
  %8 = alloca i32, align 4
  %9 = alloca i32, align 4
  store i32 %0, ptr %5, align 4, !tbaa !4
  store i32 %1, ptr %6, align 4, !tbaa !4
  store ptr %2, ptr %7, align 8, !tbaa !46
  call void @llvm.lifetime.start.p0(i64 4, ptr %8) #5
  %10 = load i32, ptr %5, align 4, !tbaa !4
  %11 = load i32, ptr %6, align 4, !tbaa !4
  %12 = call { i32, i1 } @llvm.uadd.with.overflow.i32(i32 %10, i32 %11)
  %13 = extractvalue { i32, i1 } %12, 1
  %14 = extractvalue { i32, i1 } %12, 0
  store i32 %14, ptr %8, align 4
  br i1 %13, label %17, label %15

15:                                               ; preds = %3
  %16 = load i32, ptr %8, align 4, !tbaa !4
  store i32 %16, ptr %4, align 4
  store i32 1, ptr %9, align 4
  br label %24

17:                                               ; preds = %3
  %18 = load ptr, ptr %7, align 8, !tbaa !46
  %19 = load i32, ptr %18, align 4, !tbaa !4
  %20 = or i32 %19, 1
  store i32 %20, ptr %18, align 4, !tbaa !4
  %21 = load i32, ptr %5, align 4, !tbaa !4
  %22 = load i32, ptr %6, align 4, !tbaa !4
  %23 = add i32 %21, %22
  store i32 %23, ptr %4, align 4
  store i32 1, ptr %9, align 4
  br label %24

24:                                               ; preds = %17, %15
  call void @llvm.lifetime.end.p0(i64 4, ptr %8) #5
  %25 = load i32, ptr %4, align 4
  ret i32 %25
}

; Function Attrs: inlinehint nounwind uwtable
define internal i32 @safe_mul_uint(i32 noundef %0, i32 noundef %1, ptr noundef %2) #3 {
  %4 = alloca i32, align 4
  %5 = alloca i32, align 4
  %6 = alloca i32, align 4
  %7 = alloca ptr, align 8
  %8 = alloca i32, align 4
  %9 = alloca i32, align 4
  store i32 %0, ptr %5, align 4, !tbaa !4
  store i32 %1, ptr %6, align 4, !tbaa !4
  store ptr %2, ptr %7, align 8, !tbaa !46
  call void @llvm.lifetime.start.p0(i64 4, ptr %8) #5
  %10 = load i32, ptr %5, align 4, !tbaa !4
  %11 = load i32, ptr %6, align 4, !tbaa !4
  %12 = call { i32, i1 } @llvm.umul.with.overflow.i32(i32 %10, i32 %11)
  %13 = extractvalue { i32, i1 } %12, 1
  %14 = extractvalue { i32, i1 } %12, 0
  store i32 %14, ptr %8, align 4
  br i1 %13, label %17, label %15

15:                                               ; preds = %3
  %16 = load i32, ptr %8, align 4, !tbaa !4
  store i32 %16, ptr %4, align 4
  store i32 1, ptr %9, align 4
  br label %24

17:                                               ; preds = %3
  %18 = load ptr, ptr %7, align 8, !tbaa !46
  %19 = load i32, ptr %18, align 4, !tbaa !4
  %20 = or i32 %19, 1
  store i32 %20, ptr %18, align 4, !tbaa !4
  %21 = load i32, ptr %5, align 4, !tbaa !4
  %22 = load i32, ptr %6, align 4, !tbaa !4
  %23 = mul i32 %21, %22
  store i32 %23, ptr %4, align 4
  store i32 1, ptr %9, align 4
  br label %24

24:                                               ; preds = %17, %15
  call void @llvm.lifetime.end.p0(i64 4, ptr %8) #5
  %25 = load i32, ptr %4, align 4
  ret i32 %25
}

; Function Attrs: inlinehint nounwind uwtable
define internal i32 @safe_muldiv_uint(i32 noundef %0, i32 noundef %1, i32 noundef %2, ptr noundef %3) #3 {
  %5 = alloca i32, align 4
  %6 = alloca i32, align 4
  %7 = alloca i32, align 4
  %8 = alloca i32, align 4
  %9 = alloca ptr, align 8
  %10 = alloca i32, align 4
  %11 = alloca i32, align 4
  %12 = alloca i32, align 4
  %13 = alloca i32, align 4
  store i32 %0, ptr %6, align 4, !tbaa !4
  store i32 %1, ptr %7, align 4, !tbaa !4
  store i32 %2, ptr %8, align 4, !tbaa !4
  store ptr %3, ptr %9, align 8, !tbaa !46
  call void @llvm.lifetime.start.p0(i64 4, ptr %10) #5
  store i32 0, ptr %10, align 4, !tbaa !4
  call void @llvm.lifetime.start.p0(i64 4, ptr %11) #5
  call void @llvm.lifetime.start.p0(i64 4, ptr %12) #5
  %14 = load i32, ptr %8, align 4, !tbaa !4
  %15 = icmp eq i32 %14, 0
  br i1 %15, label %16, label %28

16:                                               ; preds = %4
  %17 = load ptr, ptr %9, align 8, !tbaa !46
  %18 = load i32, ptr %17, align 4, !tbaa !4
  %19 = or i32 %18, 1
  store i32 %19, ptr %17, align 4, !tbaa !4
  %20 = load i32, ptr %6, align 4, !tbaa !4
  %21 = icmp eq i32 %20, 0
  br i1 %21, label %25, label %22

22:                                               ; preds = %16
  %23 = load i32, ptr %7, align 4, !tbaa !4
  %24 = icmp eq i32 %23, 0
  br label %25

25:                                               ; preds = %22, %16
  %26 = phi i1 [ true, %16 ], [ %24, %22 ]
  %27 = select i1 %26, i32 0, i32 -1
  store i32 %27, ptr %5, align 4
  store i32 1, ptr %13, align 4
  br label %65

28:                                               ; preds = %4
  %29 = load i32, ptr %6, align 4, !tbaa !4
  %30 = load i32, ptr %7, align 4, !tbaa !4
  %31 = call i32 @safe_mul_uint(i32 noundef %29, i32 noundef %30, ptr noundef %10)
  store i32 %31, ptr %11, align 4, !tbaa !4
  %32 = load i32, ptr %10, align 4, !tbaa !4
  %33 = icmp ne i32 %32, 0
  br i1 %33, label %38, label %34

34:                                               ; preds = %28
  %35 = load i32, ptr %11, align 4, !tbaa !4
  %36 = load i32, ptr %8, align 4, !tbaa !4
  %37 = udiv i32 %35, %36
  store i32 %37, ptr %5, align 4
  store i32 1, ptr %13, align 4
  br label %65

38:                                               ; preds = %28
  %39 = load i32, ptr %7, align 4, !tbaa !4
  %40 = load i32, ptr %6, align 4, !tbaa !4
  %41 = icmp ugt i32 %39, %40
  br i1 %41, label %42, label %46

42:                                               ; preds = %38
  %43 = load i32, ptr %7, align 4, !tbaa !4
  store i32 %43, ptr %11, align 4, !tbaa !4
  %44 = load i32, ptr %6, align 4, !tbaa !4
  store i32 %44, ptr %7, align 4, !tbaa !4
  %45 = load i32, ptr %11, align 4, !tbaa !4
  store i32 %45, ptr %6, align 4, !tbaa !4
  br label %46

46:                                               ; preds = %42, %38
  %47 = load i32, ptr %6, align 4, !tbaa !4
  %48 = load i32, ptr %8, align 4, !tbaa !4
  %49 = urem i32 %47, %48
  %50 = load i32, ptr %7, align 4, !tbaa !4
  %51 = load ptr, ptr %9, align 8, !tbaa !46
  %52 = call i32 @safe_mul_uint(i32 noundef %49, i32 noundef %50, ptr noundef %51)
  store i32 %52, ptr %11, align 4, !tbaa !4
  %53 = load i32, ptr %6, align 4, !tbaa !4
  %54 = load i32, ptr %8, align 4, !tbaa !4
  %55 = udiv i32 %53, %54
  %56 = load i32, ptr %7, align 4, !tbaa !4
  %57 = load ptr, ptr %9, align 8, !tbaa !46
  %58 = call i32 @safe_mul_uint(i32 noundef %55, i32 noundef %56, ptr noundef %57)
  store i32 %58, ptr %12, align 4, !tbaa !4
  %59 = load i32, ptr %12, align 4, !tbaa !4
  %60 = load i32, ptr %11, align 4, !tbaa !4
  %61 = load i32, ptr %8, align 4, !tbaa !4
  %62 = udiv i32 %60, %61
  %63 = load ptr, ptr %9, align 8, !tbaa !46
  %64 = call i32 @safe_add_uint(i32 noundef %59, i32 noundef %62, ptr noundef %63)
  store i32 %64, ptr %5, align 4
  store i32 1, ptr %13, align 4
  br label %65

65:                                               ; preds = %46, %34, %25
  call void @llvm.lifetime.end.p0(i64 4, ptr %12) #5
  call void @llvm.lifetime.end.p0(i64 4, ptr %11) #5
  call void @llvm.lifetime.end.p0(i64 4, ptr %10) #5
  %66 = load i32, ptr %5, align 4
  ret i32 %66
}

; Function Attrs: nounwind uwtable
define internal i32 @test_uint_muldiv(i32 noundef %0) #0 {
  %2 = alloca i32, align 4
  %3 = alloca i32, align 4
  %4 = alloca i32, align 4
  %5 = alloca i32, align 4
  %6 = alloca i32, align 4
  %7 = alloca i32, align 4
  %8 = alloca i32, align 4
  %9 = alloca i32, align 4
  %10 = alloca i32, align 4
  store i32 %0, ptr %3, align 4, !tbaa !4
  call void @llvm.lifetime.start.p0(i64 4, ptr %4) #5
  store i32 0, ptr %4, align 4, !tbaa !4
  call void @llvm.lifetime.start.p0(i64 4, ptr %5) #5
  call void @llvm.lifetime.start.p0(i64 4, ptr %6) #5
  store i32 0, ptr %6, align 4, !tbaa !4
  call void @llvm.lifetime.start.p0(i64 4, ptr %7) #5
  %11 = load i32, ptr %3, align 4, !tbaa !4
  %12 = sext i32 %11 to i64
  %13 = getelementptr inbounds [7 x %struct.anon.3], ptr @test_muldiv_uints, i64 0, i64 %12
  %14 = getelementptr inbounds nuw %struct.anon.3, ptr %13, i32 0, i32 0
  %15 = load i32, ptr %14, align 16, !tbaa !41
  store i32 %15, ptr %7, align 4, !tbaa !4
  call void @llvm.lifetime.start.p0(i64 4, ptr %8) #5
  %16 = load i32, ptr %3, align 4, !tbaa !4
  %17 = sext i32 %16 to i64
  %18 = getelementptr inbounds [7 x %struct.anon.3], ptr @test_muldiv_uints, i64 0, i64 %17
  %19 = getelementptr inbounds nuw %struct.anon.3, ptr %18, i32 0, i32 1
  %20 = load i32, ptr %19, align 4, !tbaa !43
  store i32 %20, ptr %8, align 4, !tbaa !4
  call void @llvm.lifetime.start.p0(i64 4, ptr %9) #5
  %21 = load i32, ptr %3, align 4, !tbaa !4
  %22 = sext i32 %21 to i64
  %23 = getelementptr inbounds [7 x %struct.anon.3], ptr @test_muldiv_uints, i64 0, i64 %22
  %24 = getelementptr inbounds nuw %struct.anon.3, ptr %23, i32 0, i32 2
  %25 = load i32, ptr %24, align 8, !tbaa !44
  store i32 %25, ptr %9, align 4, !tbaa !4
  %26 = load i32, ptr %7, align 4, !tbaa !4
  %27 = load i32, ptr %8, align 4, !tbaa !4
  %28 = load i32, ptr %9, align 4, !tbaa !4
  %29 = call i32 @safe_muldiv_uint(i32 noundef %26, i32 noundef %27, i32 noundef %28, ptr noundef %4)
  store i32 %29, ptr %5, align 4, !tbaa !4
  %30 = load i32, ptr %9, align 4, !tbaa !4
  %31 = icmp ne i32 %30, 0
  br i1 %31, label %32, label %42

32:                                               ; preds = %1
  %33 = load i32, ptr %7, align 4, !tbaa !4
  %34 = zext i32 %33 to i64
  %35 = load i32, ptr %8, align 4, !tbaa !4
  %36 = zext i32 %35 to i64
  %37 = mul i64 %34, %36
  %38 = load i32, ptr %9, align 4, !tbaa !4
  %39 = zext i32 %38 to i64
  %40 = udiv i64 %37, %39
  %41 = trunc i64 %40 to i32
  store i32 %41, ptr %6, align 4, !tbaa !4
  br label %42

42:                                               ; preds = %32, %1
  %43 = load i32, ptr %4, align 4, !tbaa !4
  %44 = load i32, ptr %3, align 4, !tbaa !4
  %45 = sext i32 %44 to i64
  %46 = getelementptr inbounds [7 x %struct.anon.3], ptr @test_muldiv_uints, i64 0, i64 %45
  %47 = getelementptr inbounds nuw %struct.anon.3, ptr %46, i32 0, i32 3
  %48 = load i32, ptr %47, align 4, !tbaa !45
  %49 = call i32 @test_int_eq(ptr noundef @.str.5, i32 noundef 356, ptr noundef @.str.6, ptr noundef @.str.52, i32 noundef %43, i32 noundef %48)
  %50 = icmp ne i32 %49, 0
  br i1 %50, label %51, label %59

51:                                               ; preds = %42
  %52 = load i32, ptr %4, align 4, !tbaa !4
  %53 = icmp ne i32 %52, 0
  br i1 %53, label %65, label %54

54:                                               ; preds = %51
  %55 = load i32, ptr %5, align 4, !tbaa !4
  %56 = load i32, ptr %6, align 4, !tbaa !4
  %57 = call i32 @test_uint_eq(ptr noundef @.str.5, i32 noundef 357, ptr noundef @.str.8, ptr noundef @.str.50, i32 noundef %55, i32 noundef %56)
  %58 = icmp ne i32 %57, 0
  br i1 %58, label %65, label %59

59:                                               ; preds = %54, %42
  %60 = load i32, ptr %7, align 4, !tbaa !4
  %61 = load i32, ptr %8, align 4, !tbaa !4
  %62 = load i32, ptr %9, align 4, !tbaa !4
  %63 = load i32, ptr %5, align 4, !tbaa !4
  %64 = load i32, ptr %4, align 4, !tbaa !4
  call void (ptr, i32, ptr, ...) @test_info(ptr noundef @.str.5, i32 noundef 358, ptr noundef @.str.53, i32 noundef %60, i32 noundef %61, i32 noundef %62, i32 noundef %63, i32 noundef %64)
  store i32 0, ptr %2, align 4
  store i32 1, ptr %10, align 4
  br label %66

65:                                               ; preds = %54, %51
  store i32 1, ptr %2, align 4
  store i32 1, ptr %10, align 4
  br label %66

66:                                               ; preds = %65, %59
  call void @llvm.lifetime.end.p0(i64 4, ptr %9) #5
  call void @llvm.lifetime.end.p0(i64 4, ptr %8) #5
  call void @llvm.lifetime.end.p0(i64 4, ptr %7) #5
  call void @llvm.lifetime.end.p0(i64 4, ptr %6) #5
  call void @llvm.lifetime.end.p0(i64 4, ptr %5) #5
  call void @llvm.lifetime.end.p0(i64 4, ptr %4) #5
  %67 = load i32, ptr %2, align 4
  ret i32 %67
}