; Function Attrs: nounwind uwtable
define internal range(i32 0, 2) i32 @test_uint_muldiv(i32 noundef %0) #0 {
  %2 = sext i32 %0 to i64
  %3 = getelementptr inbounds [7 x %struct.anon.3], ptr @test_muldiv_uints, i64 0, i64 %2
  %4 = load i32, ptr %3, align 16, !tbaa !39
  %5 = getelementptr inbounds nuw i8, ptr %3, i64 4
  %6 = load i32, ptr %5, align 4, !tbaa !41
  %7 = getelementptr inbounds nuw i8, ptr %3, i64 8
  %8 = load i32, ptr %7, align 8, !tbaa !42
  %9 = icmp eq i32 %8, 0
  br i1 %9, label %safe_muldiv_uint.exit, label %10

10:                                               ; preds = %1
  %11 = tail call { i32, i1 } @llvm.umul.with.overflow.i32(i32 %4, i32 %6)
  %12 = extractvalue { i32, i1 } %11, 1
  br i1 %12, label %safe_mul_uint.exit36.i, label %13

13:                                               ; preds = %10
  %14 = extractvalue { i32, i1 } %11, 0
  %15 = udiv i32 %14, %8
  br label %36

safe_mul_uint.exit36.i:                           ; preds = %10
  %spec.select.i = tail call i32 @llvm.umin.i32(i32 %6, i32 %4)
  %spec.select34.i = tail call i32 @llvm.umax.i32(i32 %6, i32 %4)
  %16 = urem i32 %spec.select34.i, %8
  %17 = tail call { i32, i1 } @llvm.umul.with.overflow.i32(i32 %16, i32 %spec.select.i)
  %18 = extractvalue { i32, i1 } %17, 1
  %19 = mul i32 %16, %spec.select.i
  %20 = extractvalue { i32, i1 } %17, 0
  %.0.i35.i = select i1 %18, i32 %19, i32 %20
  %21 = udiv i32 %spec.select34.i, %8
  %22 = tail call { i32, i1 } @llvm.umul.with.overflow.i32(i32 %21, i32 %spec.select.i)
  %23 = extractvalue { i32, i1 } %22, 1
  %24 = mul i32 %21, %spec.select.i
  %25 = extractvalue { i32, i1 } %22, 0
  %.0.i37.i = select i1 %23, i32 %24, i32 %25
  %26 = udiv i32 %.0.i35.i, %8
  %27 = tail call { i32, i1 } @llvm.uadd.with.overflow.i32(i32 %.0.i37.i, i32 %26)
  %28 = extractvalue { i32, i1 } %27, 1
  br i1 %28, label %31, label %29

29:                                               ; preds = %safe_mul_uint.exit36.i
  %narrow = select i1 %23, i1 true, i1 %18
  %.1 = zext i1 %narrow to i32
  %30 = extractvalue { i32, i1 } %27, 0
  br label %36

31:                                               ; preds = %safe_mul_uint.exit36.i
  %32 = add i32 %.0.i37.i, %26
  br label %36

safe_muldiv_uint.exit:                            ; preds = %1
  %33 = icmp ne i32 %4, 0
  %34 = icmp ne i32 %6, 0
  %.not33.i = and i1 %33, %34
  %35 = sext i1 %.not33.i to i32
  br label %43

36:                                               ; preds = %13, %29, %31
  %.2.ph = phi i32 [ 0, %13 ], [ %.1, %29 ], [ 1, %31 ]
  %.0.i.ph = phi i32 [ %15, %13 ], [ %30, %29 ], [ %32, %31 ]
  %37 = zext i32 %4 to i64
  %38 = zext i32 %6 to i64
  %39 = mul nuw i64 %38, %37
  %40 = zext i32 %8 to i64
  %41 = udiv i64 %39, %40
  %42 = trunc i64 %41 to i32
  br label %43

43:                                               ; preds = %safe_muldiv_uint.exit, %36
  %.0.i35 = phi i32 [ %.0.i.ph, %36 ], [ %35, %safe_muldiv_uint.exit ]
  %.233 = phi i32 [ %.2.ph, %36 ], [ 1, %safe_muldiv_uint.exit ]
  %.018 = phi i32 [ %42, %36 ], [ 0, %safe_muldiv_uint.exit ]
  %44 = getelementptr inbounds nuw i8, ptr %3, i64 12
  %45 = load i32, ptr %44, align 4, !tbaa !43
  %46 = tail call i32 @test_int_eq(ptr noundef nonnull @.str.5, i32 noundef 356, ptr noundef nonnull @.str.6, ptr noundef nonnull @.str.52, i32 noundef %.233, i32 noundef %45) #4
  %.not20 = icmp eq i32 %46, 0
  br i1 %.not20, label %50, label %47

47:                                               ; preds = %43
  %.not21 = icmp eq i32 %.233, 0
  br i1 %.not21, label %48, label %51

48:                                               ; preds = %47
  %49 = tail call i32 @test_uint_eq(ptr noundef nonnull @.str.5, i32 noundef 357, ptr noundef nonnull @.str.8, ptr noundef nonnull @.str.50, i32 noundef %.0.i35, i32 noundef %.018) #4
  %.not22 = icmp eq i32 %49, 0
  br i1 %.not22, label %50, label %51

50:                                               ; preds = %48, %43
  tail call void (ptr, i32, ptr, ...) @test_info(ptr noundef nonnull @.str.5, i32 noundef 358, ptr noundef nonnull @.str.53, i32 noundef %4, i32 noundef %6, i32 noundef %8, i32 noundef %.0.i35, i32 noundef %.233) #4
  br label %51

51:                                               ; preds = %47, %48, %50
  %.0 = phi i32 [ 0, %50 ], [ 1, %48 ], [ 1, %47 ]
  ret i32 %.0
}